target datalayout = "e-m:e-p270:32:32-p271:32:32-p272:64:64-i64:64-i128:128-f80:128-n8:16:32:64-S128"
target triple = "x86_64-pc-linux-gnu"

%struct.stats_t = type { double, double, double, i32, i32, i32 }
%struct.info_t = type { ptr, i16, ptr, i32, i32, i32, i32, i32, i32, i32, %struct.side_t, %struct.side_t, i32, %struct.memBuf_t, %struct.memBuf_t, i32, %struct.stats_t, %struct.stats_t }
%struct.side_t = type { i32, i32, i32 }
%struct.memBuf_t = type { [16486 x i8], i32, i32, i32, i32, %struct.COND_TYPE, i32 }
%struct.COND_TYPE = type { %union.pthread_mutex_t, %union.pthread_cond_t }
%union.pthread_mutex_t = type { %struct.__pthread_mutex_s }
%struct.__pthread_mutex_s = type { i32, i32, i32, i32, i32, i16, i16, %struct.__pthread_internal_list }
%struct.__pthread_internal_list = type { ptr, ptr }
%union.pthread_cond_t = type { %struct.__pthread_cond_s }
%struct.__pthread_cond_s = type { %union.__atomic_wide_counter, %union.__atomic_wide_counter, [2 x i32], [2 x i32], i32, i32, [2 x i32] }
%union.__atomic_wide_counter = type { i64 }

@stderr = external global ptr, align 8
@.str.7 = private unnamed_addr constant [26 x i8] c"%s L%d error %d for \22%s\22\0A\00", align 1
@.str.8 = private unnamed_addr constant [124 x i8] c"generated/home/dtcxzyw/WorkSpace/Projects/compilers/llvm-opt-benchmark/bench/wolfssl/wolfssl/examples/benchmark/tls_bench.c\00", align 1
@.str.10 = private unnamed_addr constant [19 x i8] c"thread call failed\00", align 1
@.str.96 = private unnamed_addr constant [41 x i8] c"wolfSSL_CondStart(&info->to_server.cond)\00", align 1
@.str.98 = private unnamed_addr constant [39 x i8] c"wolfSSL_CondEnd(&info->to_server.cond)\00", align 1
@.str.99 = private unnamed_addr constant [42 x i8] c"wolfSSL_CondSignal(&info->to_server.cond)\00", align 1

; Function Attrs: nounwind uwtable
define internal ptr @client_thread(ptr noundef %0) #0 {
  %2 = alloca ptr, align 8
  %3 = alloca i32, align 4
  %4 = alloca ptr, align 8
  %5 = alloca i32, align 4
  %6 = alloca i32, align 4
  %7 = alloca i32, align 4
  store ptr %0, ptr %2, align 8, !tbaa !4
  call void @llvm.lifetime.start.p0(i64 4, ptr %3) #12
  call void @llvm.lifetime.start.p0(i64 8, ptr %4) #12
  %8 = load ptr, ptr %2, align 8, !tbaa !4
  store ptr %8, ptr %4, align 8, !tbaa !4
  %9 = load ptr, ptr %4, align 8, !tbaa !4
  %10 = call i32 @bench_tls_client(ptr noundef %9)
  store i32 %10, ptr %3, align 4, !tbaa !8
  br label %11

11:                                               ; preds = %1
  call void @llvm.lifetime.start.p0(i64 4, ptr %5) #12
  %12 = load ptr, ptr %4, align 8, !tbaa !4
  %13 = getelementptr inbounds nuw %struct.info_t, ptr %12, i32 0, i32 13
  %14 = getelementptr inbounds nuw %struct.memBuf_t, ptr %13, i32 0, i32 5
  %15 = call i32 @wolfSSL_CondStart(ptr noundef %14)
  store i32 %15, ptr %5, align 4, !tbaa !8
  %16 = load i32, ptr %5, align 4, !tbaa !8
  %17 = icmp ne i32 %16, 0
  br i1 %17, label %18, label %24

18:                                               ; preds = %11
  %19 = load i32, ptr %5, align 4, !tbaa !8
  %20 = call ptr @__errno_location() #14
  store i32 %19, ptr %20, align 4, !tbaa !8
  %21 = load ptr, ptr @stderr, align 8, !tbaa !20
  %22 = load i32, ptr %5, align 4, !tbaa !8
  %23 = call i32 (ptr, ptr, ...) @fprintf(ptr noundef %21, ptr noundef @.str.7, ptr noundef @.str.8, i32 noundef 1240, i32 noundef %22, ptr noundef @.str.96) #12
  call void @err_sys(ptr noundef @.str.10) #15
  unreachable

24:                                               ; preds = %11
  call void @llvm.lifetime.end.p0(i64 4, ptr %5) #12
  br label %25

25:                                               ; preds = %24
  br label %26

26:                                               ; preds = %25
  %27 = load ptr, ptr %4, align 8, !tbaa !4
  %28 = getelementptr inbounds nuw %struct.info_t, ptr %27, i32 0, i32 14
  %29 = getelementptr inbounds nuw %struct.memBuf_t, ptr %28, i32 0, i32 6
  store i32 1, ptr %29, align 8, !tbaa !50
  %30 = load i32, ptr %3, align 4, !tbaa !8
  %31 = load ptr, ptr %4, align 8, !tbaa !4
  %32 = getelementptr inbounds nuw %struct.info_t, ptr %31, i32 0, i32 10
  %33 = getelementptr inbounds nuw %struct.side_t, ptr %32, i32 0, i32 2
  store i32 %30, ptr %33, align 4, !tbaa !92
  br label %34

34:                                               ; preds = %26
  call void @llvm.lifetime.start.p0(i64 4, ptr %6) #12
  %35 = load ptr, ptr %4, align 8, !tbaa !4
  %36 = getelementptr inbounds nuw %struct.info_t, ptr %35, i32 0, i32 13
  %37 = getelementptr inbounds nuw %struct.memBuf_t, ptr %36, i32 0, i32 5
  %38 = call i32 @wolfSSL_CondSignal(ptr noundef %37)
  store i32 %38, ptr %6, align 4, !tbaa !8
  %39 = load i32, ptr %6, align 4, !tbaa !8
  %40 = icmp ne i32 %39, 0
  br i1 %40, label %41, label %47

41:                                               ; preds = %34
  %42 = load i32, ptr %6, align 4, !tbaa !8
  %43 = call ptr @__errno_location() #14
  store i32 %42, ptr %43, align 4, !tbaa !8
  %44 = load ptr, ptr @stderr, align 8, !tbaa !20
  %45 = load i32, ptr %6, align 4, !tbaa !8
  %46 = call i32 (ptr, ptr, ...) @fprintf(ptr noundef %44, ptr noundef @.str.7, ptr noundef @.str.8, i32 noundef 1243, i32 noundef %45, ptr noundef @.str.99) #12
  call void @err_sys(ptr noundef @.str.10) #15
  unreachable

47:                                               ; preds = %34
  call void @llvm.lifetime.end.p0(i64 4, ptr %6) #12
  br label %48

48:                                               ; preds = %47
  br label %49

49:                                               ; preds = %48
  br label %50

50:                                               ; preds = %49
  call void @llvm.lifetime.start.p0(i64 4, ptr %7) #12
  %51 = load ptr, ptr %4, align 8, !tbaa !4
  %52 = getelementptr inbounds nuw %struct.info_t, ptr %51, i32 0, i32 13
  %53 = getelementptr inbounds nuw %struct.memBuf_t, ptr %52, i32 0, i32 5
  %54 = call i32 @wolfSSL_CondEnd(ptr noundef %53)
  store i32 %54, ptr %7, align 4, !tbaa !8
  %55 = load i32, ptr %7, align 4, !tbaa !8
  %56 = icmp ne i32 %55, 0
  br i1 %56, label %57, label %63

57:                                               ; preds = %50
  %58 = load i32, ptr %7, align 4, !tbaa !8
  %59 = call ptr @__errno_location() #14
  store i32 %58, ptr %59, align 4, !tbaa !8
  %60 = load ptr, ptr @stderr, align 8, !tbaa !20
  %61 = load i32, ptr %7, align 4, !tbaa !8
  %62 = call i32 (ptr, ptr, ...) @fprintf(ptr noundef %60, ptr noundef @.str.7, ptr noundef @.str.8, i32 noundef 1244, i32 noundef %61, ptr noundef @.str.98) #12
  call void @err_sys(ptr noundef @.str.10) #15
  unreachable

63:                                               ; preds = %50
  call void @llvm.lifetime.end.p0(i64 4, ptr %7) #12
  br label %64

64:                                               ; preds = %63
  br label %65

65:                                               ; preds = %64
  call void @llvm.lifetime.end.p0(i64 8, ptr %4) #12
  call void @llvm.lifetime.end.p0(i64 4, ptr %3) #12
  ret ptr null
}