; Function Attrs: nounwind uwtable
define internal noalias noundef ptr @client_thread(ptr noundef %0) #0 {
  %2 = tail call fastcc i32 @bench_tls_client(ptr noundef %0)
  %3 = getelementptr inbounds nuw i8, ptr %0, i64 16584
  %4 = tail call i32 @wolfSSL_CondStart(ptr noundef nonnull %3) #17
  %.not = icmp eq i32 %4, 0
  br i1 %.not, label %9, label %5

5:                                                ; preds = %1
  %6 = tail call ptr @__errno_location() #21
  store i32 %4, ptr %6, align 4, !tbaa !4
  %7 = load ptr, ptr @stderr, align 8, !tbaa !19
  %8 = tail call i32 (ptr, ptr, ...) @fprintf(ptr noundef %7, ptr noundef nonnull @.str.7, ptr noundef nonnull @.str.8, i32 noundef 1240, i32 noundef %4, ptr noundef nonnull @.str.96) #18
  tail call fastcc void @err_sys(ptr noundef nonnull @.str.10) #22
  unreachable

9:                                                ; preds = %1
  %10 = getelementptr inbounds nuw i8, ptr %0, i64 33272
  store i32 1, ptr %10, align 8, !tbaa !48
  %11 = getelementptr inbounds nuw i8, ptr %0, i64 60
  store i32 %2, ptr %11, align 4, !tbaa !87
  %12 = tail call i32 @wolfSSL_CondSignal(ptr noundef nonnull %3) #17
  %.not18 = icmp eq i32 %12, 0
  br i1 %.not18, label %17, label %13

13:                                               ; preds = %9
  %14 = tail call ptr @__errno_location() #21
  store i32 %12, ptr %14, align 4, !tbaa !4
  %15 = load ptr, ptr @stderr, align 8, !tbaa !19
  %16 = tail call i32 (ptr, ptr, ...) @fprintf(ptr noundef %15, ptr noundef nonnull @.str.7, ptr noundef nonnull @.str.8, i32 noundef 1243, i32 noundef %12, ptr noundef nonnull @.str.99) #18
  tail call fastcc void @err_sys(ptr noundef nonnull @.str.10) #22
  unreachable

17:                                               ; preds = %9
  %18 = tail call i32 @wolfSSL_CondEnd(ptr noundef nonnull %3) #17
  %.not19 = icmp eq i32 %18, 0
  br i1 %.not19, label %23, label %19

19:                                               ; preds = %17
  %20 = tail call ptr @__errno_location() #21
  store i32 %18, ptr %20, align 4, !tbaa !4
  %21 = load ptr, ptr @stderr, align 8, !tbaa !19
  %22 = tail call i32 (ptr, ptr, ...) @fprintf(ptr noundef %21, ptr noundef nonnull @.str.7, ptr noundef nonnull @.str.8, i32 noundef 1244, i32 noundef %18, ptr noundef nonnull @.str.98) #18
  tail call fastcc void @err_sys(ptr noundef nonnull @.str.10) #22
  unreachable

23:                                               ; preds = %17
  ret ptr null
}